target datalayout = "e-m:e-p270:32:32-p271:32:32-p272:64:64-i64:64-i128:128-f80:128-n8:16:32:64-S128"
target triple = "x86_64-pc-linux-gnu"

%"struct.icu_77::(anonymous namespace)::UnitPrefixStrings" = type { ptr, i32 }
%"class.icu_77::StringPiece" = type <{ ptr, i32, [4 x i8] }>
%"struct.icu_77::SingleUnitImpl" = type { i32, i32, i32 }

@_ZN6icu_7712_GLOBAL__N_112gSimpleUnitsE = internal global ptr null, align 8
@.str = private unnamed_addr constant [8 x i8] c"square-\00", align 1
@.str.1 = private unnamed_addr constant [7 x i8] c"cubic-\00", align 1
@.str.2 = private unnamed_addr constant [4 x i8] c"pow\00", align 1
@.str.3 = private unnamed_addr constant [2 x i8] c"-\00", align 1

; Function Attrs: mustprogress nounwind uwtable
define linkonce_odr noundef i32 @_ZNK6icu_7711StringPiece6lengthEv(ptr noundef nonnull align 8 dereferenceable(12) %0) #0 comdat align 2 {
  %2 = alloca ptr, align 8
  store ptr %0, ptr %2, align 8, !tbaa !146
  %3 = load ptr, ptr %2, align 8
  %4 = getelementptr inbounds nuw %"class.icu_77::StringPiece", ptr %3, i32 0, i32 1
  %5 = load i32, ptr %4, align 8, !tbaa !148
  ret i32 %5
}

; Function Attrs: mustprogress nounwind uwtable
define linkonce_odr noundef ptr @_ZNK6icu_7711StringPiece4dataEv(ptr noundef nonnull align 8 dereferenceable(12) %0) #0 comdat align 2 {
  %2 = alloca ptr, align 8
  store ptr %0, ptr %2, align 8, !tbaa !146
  %3 = load ptr, ptr %2, align 8
  %4 = getelementptr inbounds nuw %"class.icu_77::StringPiece", ptr %3, i32 0, i32 0
  %5 = load ptr, ptr %4, align 8, !tbaa !150
  ret ptr %5
}

; Function Attrs: mustprogress nounwind uwtable
define noundef ptr @_ZNK6icu_7714SingleUnitImpl15getSimpleUnitIDEv(ptr noundef nonnull align 4 dereferenceable(12) %0) #0 align 2 {
  %2 = alloca ptr, align 8
  store ptr %0, ptr %2, align 8, !tbaa !79
  %3 = load ptr, ptr %2, align 8
  %4 = load ptr, ptr @_ZN6icu_7712_GLOBAL__N_112gSimpleUnitsE, align 8, !tbaa !51
  %5 = getelementptr inbounds nuw %"struct.icu_77::SingleUnitImpl", ptr %3, i32 0, i32 0
  %6 = load i32, ptr %5, align 4, !tbaa !86
  %7 = sext i32 %6 to i64
  %8 = getelementptr inbounds ptr, ptr %4, i64 %7
  %9 = load ptr, ptr %8, align 8, !tbaa !17
  ret ptr %9
}

; Function Attrs: inlinehint mustprogress nounwind uwtable
define internal noundef signext i8 @_ZL9U_FAILURE10UErrorCode(i32 noundef %0) #2 {
  %2 = alloca i32, align 4
  store i32 %0, ptr %2, align 4, !tbaa !15
  %3 = load i32, ptr %2, align 4, !tbaa !15
  %4 = icmp sgt i32 %3, 0
  %5 = zext i1 %4 to i8
  ret i8 %5
}

; Function Attrs: mustprogress uwtable
define linkonce_odr noundef nonnull align 8 dereferenceable(60) ptr @_ZN6icu_7710CharString6appendENS_11StringPieceER10UErrorCode(ptr noundef nonnull align 8 dereferenceable(60) %0, ptr %1, i32 %2, ptr noundef nonnull align 4 dereferenceable(4) %3) #1 comdat align 2 {
  %5 = alloca %"class.icu_77::StringPiece", align 8
  %6 = alloca ptr, align 8
  %7 = alloca ptr, align 8
  %8 = getelementptr inbounds nuw { ptr, i32 }, ptr %5, i32 0, i32 0
  store ptr %1, ptr %8, align 8
  %9 = getelementptr inbounds nuw { ptr, i32 }, ptr %5, i32 0, i32 1
  store i32 %2, ptr %9, align 8
  store ptr %0, ptr %6, align 8, !tbaa !32
  store ptr %3, ptr %7, align 8, !tbaa !22
  %10 = load ptr, ptr %6, align 8
  %11 = call noundef ptr @_ZNK6icu_7711StringPiece4dataEv(ptr noundef nonnull align 8 dereferenceable(12) %5)
  %12 = call noundef i32 @_ZNK6icu_7711StringPiece6lengthEv(ptr noundef nonnull align 8 dereferenceable(12) %5)
  %13 = load ptr, ptr %7, align 8, !tbaa !22
  %14 = call noundef nonnull align 8 dereferenceable(60) ptr @_ZN6icu_7710CharString6appendEPKciR10UErrorCode(ptr noundef nonnull align 8 dereferenceable(60) %10, ptr noundef %11, i32 noundef %12, ptr noundef nonnull align 4 dereferenceable(4) %13)
  ret ptr %14
}

; Function Attrs: mustprogress uwtable
define void @_ZNK6icu_7714SingleUnitImpl23appendNeutralIdentifierERNS_10CharStringER10UErrorCode(ptr noundef nonnull align 4 dereferenceable(12) %0, ptr noundef nonnull align 8 dereferenceable(60) %1, ptr noundef nonnull align 4 dereferenceable(4) %2) #1 align 2 {
  %4 = alloca ptr, align 8
  %5 = alloca ptr, align 8
  %6 = alloca ptr, align 8
  %7 = alloca i32, align 4
  %8 = alloca %"class.icu_77::StringPiece", align 8
  %9 = alloca %"class.icu_77::StringPiece", align 8
  %10 = alloca %"class.icu_77::StringPiece", align 8
  %11 = alloca %"class.icu_77::StringPiece", align 8
  %12 = alloca i32, align 4
  %13 = alloca i8, align 1
  %14 = alloca ptr, align 8
  %15 = alloca ptr, align 8
  %16 = alloca ptr, align 8
  %17 = alloca ptr, align 8
  %18 = alloca %"class.icu_77::StringPiece", align 8
  %19 = alloca %"class.icu_77::StringPiece", align 8
  store ptr %0, ptr %4, align 8, !tbaa !79
  store ptr %1, ptr %5, align 8, !tbaa !32
  store ptr %2, ptr %6, align 8, !tbaa !22
  %20 = load ptr, ptr %4, align 8
  call void @llvm.lifetime.start.p0(i64 4, ptr %7) #14
  %21 = getelementptr inbounds nuw %"struct.icu_77::SingleUnitImpl", ptr %20, i32 0, i32 2
  %22 = load i32, ptr %21, align 4, !tbaa !72
  %23 = call i32 @llvm.abs.i32(i32 %22, i1 true)
  store i32 %23, ptr %7, align 4, !tbaa !14
  %24 = load i32, ptr %7, align 4, !tbaa !14
  %25 = icmp eq i32 %24, 1
  br i1 %25, label %26, label %27

26:                                               ; preds = %3
  br label %77

27:                                               ; preds = %3
  %28 = load i32, ptr %7, align 4, !tbaa !14
  %29 = icmp eq i32 %28, 2
  br i1 %29, label %30, label %38

30:                                               ; preds = %27
  %31 = load ptr, ptr %5, align 8, !tbaa !32
  call void @_ZN6icu_7711StringPieceC1EPKc(ptr noundef nonnull align 8 dereferenceable(12) %8, ptr noundef @.str)
  %32 = load ptr, ptr %6, align 8, !tbaa !22
  %33 = getelementptr inbounds nuw { ptr, i32 }, ptr %8, i32 0, i32 0
  %34 = load ptr, ptr %33, align 8
  %35 = getelementptr inbounds nuw { ptr, i32 }, ptr %8, i32 0, i32 1
  %36 = load i32, ptr %35, align 8
  %37 = call noundef nonnull align 8 dereferenceable(60) ptr @_ZN6icu_7710CharString6appendENS_11StringPieceER10UErrorCode(ptr noundef nonnull align 8 dereferenceable(60) %31, ptr %34, i32 %36, ptr noundef nonnull align 4 dereferenceable(4) %32)
  br label %76

38:                                               ; preds = %27
  %39 = load i32, ptr %7, align 4, !tbaa !14
  %40 = icmp eq i32 %39, 3
  br i1 %40, label %41, label %49

41:                                               ; preds = %38
  %42 = load ptr, ptr %5, align 8, !tbaa !32
  call void @_ZN6icu_7711StringPieceC1EPKc(ptr noundef nonnull align 8 dereferenceable(12) %9, ptr noundef @.str.1)
  %43 = load ptr, ptr %6, align 8, !tbaa !22
  %44 = getelementptr inbounds nuw { ptr, i32 }, ptr %9, i32 0, i32 0
  %45 = load ptr, ptr %44, align 8
  %46 = getelementptr inbounds nuw { ptr, i32 }, ptr %9, i32 0, i32 1
  %47 = load i32, ptr %46, align 8
  %48 = call noundef nonnull align 8 dereferenceable(60) ptr @_ZN6icu_7710CharString6appendENS_11StringPieceER10UErrorCode(ptr noundef nonnull align 8 dereferenceable(60) %42, ptr %45, i32 %47, ptr noundef nonnull align 4 dereferenceable(4) %43)
  br label %75

49:                                               ; preds = %38
  %50 = load i32, ptr %7, align 4, !tbaa !14
  %51 = icmp sle i32 %50, 15
  br i1 %51, label %52, label %72

52:                                               ; preds = %49
  %53 = load ptr, ptr %5, align 8, !tbaa !32
  call void @_ZN6icu_7711StringPieceC1EPKc(ptr noundef nonnull align 8 dereferenceable(12) %10, ptr noundef @.str.2)
  %54 = load ptr, ptr %6, align 8, !tbaa !22
  %55 = getelementptr inbounds nuw { ptr, i32 }, ptr %10, i32 0, i32 0
  %56 = load ptr, ptr %55, align 8
  %57 = getelementptr inbounds nuw { ptr, i32 }, ptr %10, i32 0, i32 1
  %58 = load i32, ptr %57, align 8
  %59 = call noundef nonnull align 8 dereferenceable(60) ptr @_ZN6icu_7710CharString6appendENS_11StringPieceER10UErrorCode(ptr noundef nonnull align 8 dereferenceable(60) %53, ptr %56, i32 %58, ptr noundef nonnull align 4 dereferenceable(4) %54)
  %60 = load ptr, ptr %5, align 8, !tbaa !32
  %61 = load i32, ptr %7, align 4, !tbaa !14
  %62 = sext i32 %61 to i64
  %63 = load ptr, ptr %6, align 8, !tbaa !22
  %64 = call noundef nonnull align 8 dereferenceable(60) ptr @_ZN6icu_7710CharString12appendNumberElR10UErrorCode(ptr noundef nonnull align 8 dereferenceable(60) %60, i64 noundef %62, ptr noundef nonnull align 4 dereferenceable(4) %63)
  %65 = load ptr, ptr %5, align 8, !tbaa !32
  call void @_ZN6icu_7711StringPieceC1EPKc(ptr noundef nonnull align 8 dereferenceable(12) %11, ptr noundef @.str.3)
  %66 = load ptr, ptr %6, align 8, !tbaa !22
  %67 = getelementptr inbounds nuw { ptr, i32 }, ptr %11, i32 0, i32 0
  %68 = load ptr, ptr %67, align 8
  %69 = getelementptr inbounds nuw { ptr, i32 }, ptr %11, i32 0, i32 1
  %70 = load i32, ptr %69, align 8
  %71 = call noundef nonnull align 8 dereferenceable(60) ptr @_ZN6icu_7710CharString6appendENS_11StringPieceER10UErrorCode(ptr noundef nonnull align 8 dereferenceable(60) %65, ptr %68, i32 %70, ptr noundef nonnull align 4 dereferenceable(4) %66)
  br label %74

72:                                               ; preds = %49
  %73 = load ptr, ptr %6, align 8, !tbaa !22
  store i32 1, ptr %73, align 4, !tbaa !15
  store i32 1, ptr %12, align 4
  br label %138

74:                                               ; preds = %52
  br label %75

75:                                               ; preds = %74, %41
  br label %76

76:                                               ; preds = %75, %30
  br label %77

77:                                               ; preds = %76, %26
  %78 = load ptr, ptr %6, align 8, !tbaa !22
  %79 = load i32, ptr %78, align 4, !tbaa !15
  %80 = call noundef signext i8 @_ZL9U_FAILURE10UErrorCode(i32 noundef %79)
  %81 = icmp ne i8 %80, 0
  br i1 %81, label %82, label %83

82:                                               ; preds = %77
  store i32 1, ptr %12, align 4
  br label %138

83:                                               ; preds = %77
  %84 = getelementptr inbounds nuw %"struct.icu_77::SingleUnitImpl", ptr %20, i32 0, i32 1
  %85 = load i32, ptr %84, align 4, !tbaa !81
  %86 = icmp ne i32 %85, 30
  br i1 %86, label %87, label %129

87:                                               ; preds = %83
  call void @llvm.lifetime.start.p0(i64 1, ptr %13) #14
  store i8 0, ptr %13, align 1, !tbaa !68
  call void @llvm.lifetime.start.p0(i64 8, ptr %14) #14
  store ptr @_ZN6icu_7712_GLOBAL__N_118gUnitPrefixStringsE, ptr %14, align 8, !tbaa !46
  call void @llvm.lifetime.start.p0(i64 8, ptr %15) #14
  store ptr @_ZN6icu_7712_GLOBAL__N_118gUnitPrefixStringsE, ptr %15, align 8, !tbaa !46
  call void @llvm.lifetime.start.p0(i64 8, ptr %16) #14
  store ptr getelementptr inbounds (%"struct.icu_77::(anonymous namespace)::UnitPrefixStrings", ptr @_ZN6icu_7712_GLOBAL__N_118gUnitPrefixStringsE, i64 32), ptr %16, align 8, !tbaa !46
  br label %88

88:                                               ; preds = %116, %87
  %89 = load ptr, ptr %15, align 8, !tbaa !46
  %90 = load ptr, ptr %16, align 8, !tbaa !46
  %91 = icmp ne ptr %89, %90
  br i1 %91, label %93, label %92

92:                                               ; preds = %88
  store i32 2, ptr %12, align 4
  br label %119

93:                                               ; preds = %88
  call void @llvm.lifetime.start.p0(i64 8, ptr %17) #14
  %94 = load ptr, ptr %15, align 8, !tbaa !46
  store ptr %94, ptr %17, align 8, !tbaa !46
  %95 = load ptr, ptr %17, align 8, !tbaa !46
  %96 = getelementptr inbounds nuw %"struct.icu_77::(anonymous namespace)::UnitPrefixStrings", ptr %95, i32 0, i32 1
  %97 = load i32, ptr %96, align 8, !tbaa !50
  %98 = getelementptr inbounds nuw %"struct.icu_77::SingleUnitImpl", ptr %20, i32 0, i32 1
  %99 = load i32, ptr %98, align 4, !tbaa !81
  %100 = icmp eq i32 %97, %99
  br i1 %100, label %101, label %112

101:                                              ; preds = %93
  %102 = load ptr, ptr %5, align 8, !tbaa !32
  %103 = load ptr, ptr %17, align 8, !tbaa !46
  %104 = getelementptr inbounds nuw %"struct.icu_77::(anonymous namespace)::UnitPrefixStrings", ptr %103, i32 0, i32 0
  %105 = load ptr, ptr %104, align 8, !tbaa !48
  call void @_ZN6icu_7711StringPieceC1EPKc(ptr noundef nonnull align 8 dereferenceable(12) %18, ptr noundef %105)
  %106 = load ptr, ptr %6, align 8, !tbaa !22
  %107 = getelementptr inbounds nuw { ptr, i32 }, ptr %18, i32 0, i32 0
  %108 = load ptr, ptr %107, align 8
  %109 = getelementptr inbounds nuw { ptr, i32 }, ptr %18, i32 0, i32 1
  %110 = load i32, ptr %109, align 8
  %111 = call noundef nonnull align 8 dereferenceable(60) ptr @_ZN6icu_7710CharString6appendENS_11StringPieceER10UErrorCode(ptr noundef nonnull align 8 dereferenceable(60) %102, ptr %108, i32 %110, ptr noundef nonnull align 4 dereferenceable(4) %106)
  store i8 1, ptr %13, align 1, !tbaa !68
  store i32 2, ptr %12, align 4
  br label %113

112:                                              ; preds = %93
  store i32 0, ptr %12, align 4
  br label %113

113:                                              ; preds = %112, %101
  call void @llvm.lifetime.end.p0(i64 8, ptr %17) #14
  %114 = load i32, ptr %12, align 4
  switch i32 %114, label %119 [
    i32 0, label %115
  ]

115:                                              ; preds = %113
  br label %116

116:                                              ; preds = %115
  %117 = load ptr, ptr %15, align 8, !tbaa !46
  %118 = getelementptr inbounds nuw %"struct.icu_77::(anonymous namespace)::UnitPrefixStrings", ptr %117, i32 1
  store ptr %118, ptr %15, align 8, !tbaa !46
  br label %88

119:                                              ; preds = %113, %92
  call void @llvm.lifetime.end.p0(i64 8, ptr %16) #14
  call void @llvm.lifetime.end.p0(i64 8, ptr %15) #14
  call void @llvm.lifetime.end.p0(i64 8, ptr %14) #14
  br label %120

120:                                              ; preds = %119
  %121 = load i8, ptr %13, align 1, !tbaa !68, !range !70, !noundef !71
  %122 = trunc i8 %121 to i1
  br i1 %122, label %125, label %123

123:                                              ; preds = %120
  %124 = load ptr, ptr %6, align 8, !tbaa !22
  store i32 16, ptr %124, align 4, !tbaa !15
  store i32 1, ptr %12, align 4
  br label %126

125:                                              ; preds = %120
  store i32 0, ptr %12, align 4
  br label %126

126:                                              ; preds = %125, %123
  call void @llvm.lifetime.end.p0(i64 1, ptr %13) #14
  %127 = load i32, ptr %12, align 4
  switch i32 %127, label %138 [
    i32 0, label %128
  ]

128:                                              ; preds = %126
  br label %129

129:                                              ; preds = %128, %83
  %130 = load ptr, ptr %5, align 8, !tbaa !32
  %131 = call noundef ptr @_ZNK6icu_7714SingleUnitImpl15getSimpleUnitIDEv(ptr noundef nonnull align 4 dereferenceable(12) %20)
  call void @_ZN6icu_7711StringPieceC1EPKc(ptr noundef nonnull align 8 dereferenceable(12) %19, ptr noundef %131)
  %132 = load ptr, ptr %6, align 8, !tbaa !22
  %133 = getelementptr inbounds nuw { ptr, i32 }, ptr %19, i32 0, i32 0
  %134 = load ptr, ptr %133, align 8
  %135 = getelementptr inbounds nuw { ptr, i32 }, ptr %19, i32 0, i32 1
  %136 = load i32, ptr %135, align 8
  %137 = call noundef nonnull align 8 dereferenceable(60) ptr @_ZN6icu_7710CharString6appendENS_11StringPieceER10UErrorCode(ptr noundef nonnull align 8 dereferenceable(60) %130, ptr %134, i32 %136, ptr noundef nonnull align 4 dereferenceable(4) %132)
  store i32 0, ptr %12, align 4
  br label %138

138:                                              ; preds = %129, %126, %82, %72
  call void @llvm.lifetime.end.p0(i64 4, ptr %7) #14
  %139 = load i32, ptr %12, align 4
  switch i32 %139, label %141 [
    i32 0, label %140
    i32 1, label %140
  ]

140:                                              ; preds = %138, %138
  ret void

141:                                              ; preds = %138
  unreachable
}