; Function Attrs: mustprogress uwtable
define void @_ZNK6icu_7714SingleUnitImpl23appendNeutralIdentifierERNS_10CharStringER10UErrorCode(ptr noundef nonnull readonly align 4 captures(none) dereferenceable(12) %0, ptr noundef nonnull align 8 dereferenceable(60) %1, ptr noundef nonnull align 4 dereferenceable(4) %2) local_unnamed_addr #1 align 2 {
  %4 = alloca %"class.icu_77::StringPiece", align 8
  %5 = alloca %"class.icu_77::StringPiece", align 8
  %6 = alloca %"class.icu_77::StringPiece", align 8
  %7 = alloca %"class.icu_77::StringPiece", align 8
  %8 = alloca %"class.icu_77::StringPiece", align 8
  %9 = alloca %"class.icu_77::StringPiece", align 8
  %10 = getelementptr inbounds nuw i8, ptr %0, i64 8
  %11 = load i32, ptr %10, align 4, !tbaa !36
  %12 = tail call i32 @llvm.abs.i32(i32 %11, i1 true)
  %.sink50.sroa.gep53 = getelementptr inbounds nuw i8, ptr %7, i64 8
  switch i32 %12, label %15 [
    i32 1, label %28
    i32 2, label %13
    i32 3, label %14
  ]

13:                                               ; preds = %3
  %.sink50.sroa.gep = getelementptr inbounds nuw i8, ptr %4, i64 8
  call void @_ZN6icu_7711StringPieceC1EPKc(ptr noundef nonnull align 8 dereferenceable(12) %4, ptr noundef nonnull @.str)
  br label %.sink.split

14:                                               ; preds = %3
  %.sink50.sroa.gep54 = getelementptr inbounds nuw i8, ptr %5, i64 8
  call void @_ZN6icu_7711StringPieceC1EPKc(ptr noundef nonnull align 8 dereferenceable(12) %5, ptr noundef nonnull @.str.1)
  br label %.sink.split

15:                                               ; preds = %3
  %16 = icmp samesign ult i32 %12, 16
  br i1 %16, label %17, label %24

17:                                               ; preds = %15
  call void @_ZN6icu_7711StringPieceC1EPKc(ptr noundef nonnull align 8 dereferenceable(12) %6, ptr noundef nonnull @.str.2)
  %18 = load ptr, ptr %6, align 8
  %19 = getelementptr inbounds nuw i8, ptr %6, i64 8
  %20 = load i32, ptr %19, align 8
  %21 = call noundef nonnull align 8 dereferenceable(60) ptr @_ZN6icu_7710CharString6appendEPKciR10UErrorCode(ptr noundef nonnull align 8 dereferenceable(60) %1, ptr noundef %18, i32 noundef %20, ptr noundef nonnull align 4 dereferenceable(4) %2)
  %22 = zext nneg i32 %12 to i64
  %23 = call noundef nonnull align 8 dereferenceable(60) ptr @_ZN6icu_7710CharString12appendNumberElR10UErrorCode(ptr noundef nonnull align 8 dereferenceable(60) %1, i64 noundef %22, ptr noundef nonnull align 4 dereferenceable(4) %2)
  call void @_ZN6icu_7711StringPieceC1EPKc(ptr noundef nonnull align 8 dereferenceable(12) %7, ptr noundef nonnull @.str.3)
  br label %.sink.split

24:                                               ; preds = %15
  store i32 1, ptr %2, align 4, !tbaa !13
  br label %52

.sink.split:                                      ; preds = %14, %17, %13
  %.sink50.sroa.phi = phi ptr [ %.sink50.sroa.gep, %13 ], [ %.sink50.sroa.gep53, %17 ], [ %.sink50.sroa.gep54, %14 ]
  %.sink50 = phi ptr [ %4, %13 ], [ %7, %17 ], [ %5, %14 ]
  %25 = load ptr, ptr %.sink50, align 8
  %26 = load i32, ptr %.sink50.sroa.phi, align 8
  %27 = call noundef nonnull align 8 dereferenceable(60) ptr @_ZN6icu_7710CharString6appendEPKciR10UErrorCode(ptr noundef nonnull align 8 dereferenceable(60) %1, ptr noundef %25, i32 noundef %26, ptr noundef nonnull align 4 dereferenceable(4) %2)
  br label %28

28:                                               ; preds = %.sink.split, %3
  %29 = load i32, ptr %2, align 4, !tbaa !13
  %30 = icmp slt i32 %29, 1
  br i1 %30, label %31, label %52

31:                                               ; preds = %28
  %32 = getelementptr inbounds nuw i8, ptr %0, i64 4
  %33 = load i32, ptr %32, align 4, !tbaa !85
  %.not36 = icmp eq i32 %33, 30
  br i1 %.not36, label %.critedge, label %.preheader

34:                                               ; preds = %.preheader
  %.034.add = add nuw nsw i64 %.034.idx43, 16
  %.not37 = icmp eq i64 %.034.add, 512
  br i1 %.not37, label %42, label %.preheader

.preheader:                                       ; preds = %31, %34
  %.034.idx43 = phi i64 [ %.034.add, %34 ], [ 0, %31 ]
  %.034.ptr44 = getelementptr inbounds nuw i8, ptr @_ZN6icu_7712_GLOBAL__N_118gUnitPrefixStringsE, i64 %.034.idx43
  %35 = getelementptr inbounds nuw i8, ptr %.034.ptr44, i64 8
  %36 = load i32, ptr %35, align 8, !tbaa !66
  %.not38 = icmp eq i32 %36, %33
  br i1 %.not38, label %.thread40, label %34

.thread40:                                        ; preds = %.preheader
  %37 = load ptr, ptr %.034.ptr44, align 8, !tbaa !64
  call void @_ZN6icu_7711StringPieceC1EPKc(ptr noundef nonnull align 8 dereferenceable(12) %8, ptr noundef %37)
  %38 = load ptr, ptr %8, align 8
  %39 = getelementptr inbounds nuw i8, ptr %8, i64 8
  %40 = load i32, ptr %39, align 8
  %41 = call noundef nonnull align 8 dereferenceable(60) ptr @_ZN6icu_7710CharString6appendEPKciR10UErrorCode(ptr noundef nonnull align 8 dereferenceable(60) %1, ptr noundef %38, i32 noundef %40, ptr noundef nonnull align 4 dereferenceable(4) %2)
  br label %.critedge

42:                                               ; preds = %34
  store i32 16, ptr %2, align 4, !tbaa !13
  br label %52

.critedge:                                        ; preds = %.thread40, %31
  %43 = load ptr, ptr @_ZN6icu_7712_GLOBAL__N_112gSimpleUnitsE, align 8, !tbaa !67
  %44 = load i32, ptr %0, align 4, !tbaa !84
  %45 = sext i32 %44 to i64
  %46 = getelementptr inbounds ptr, ptr %43, i64 %45
  %47 = load ptr, ptr %46, align 8, !tbaa !22
  call void @_ZN6icu_7711StringPieceC1EPKc(ptr noundef nonnull align 8 dereferenceable(12) %9, ptr noundef %47)
  %48 = load ptr, ptr %9, align 8
  %49 = getelementptr inbounds nuw i8, ptr %9, i64 8
  %50 = load i32, ptr %49, align 8
  %51 = call noundef nonnull align 8 dereferenceable(60) ptr @_ZN6icu_7710CharString6appendEPKciR10UErrorCode(ptr noundef nonnull align 8 dereferenceable(60) %1, ptr noundef %48, i32 noundef %50, ptr noundef nonnull align 4 dereferenceable(4) %2)
  br label %52

52:                                               ; preds = %42, %28, %.critedge, %24
  ret void
}